; Function Attrs: nounwind uwtable
define internal noundef i32 @newreno_on_ecn(ptr noundef captures(none) initializes((80, 88), (96, 100), (104, 112)) %0, ptr noundef readonly captures(none) %1) #0 {
  %3 = getelementptr inbounds nuw i8, ptr %0, i64 96
  store i32 1, ptr %3, align 8, !tbaa !32
  %4 = getelementptr inbounds nuw i8, ptr %0, i64 80
  store i64 0, ptr %4, align 8, !tbaa !31
  %5 = getelementptr inbounds nuw i8, ptr %0, i64 104
  %6 = load i64, ptr %1, align 8, !tbaa !19
  store i64 %6, ptr %5, align 8, !tbaa !19
  tail call fastcc void @newreno_flush(ptr noundef %0, i32 noundef 0)
  ret i32 1
}